target datalayout = "e-m:e-p270:32:32-p271:32:32-p272:64:64-i64:64-i128:128-f80:128-n8:16:32:64-S128"
target triple = "x86_64-pc-linux-gnu"

%struct.location = type { i32, i32 }
%struct.block = type { ptr, ptr }
%struct.inst = type { ptr, ptr, i32, %struct.anon, ptr, %struct.location, ptr, ptr, i32, i32, i32, i32, %struct.block, %struct.block, ptr, i32 }
%struct.anon = type { i16, ptr, %struct.jv, ptr }
%struct.jv = type { i8, i8, i16, i32, %union.anon }
%union.anon = type { ptr }

; Function Attrs: nounwind uwtable
define internal void @inst_join(ptr noundef %0, ptr noundef %1) #0 {
  %3 = alloca ptr, align 8
  %4 = alloca ptr, align 8
  store ptr %0, ptr %3, align 8, !tbaa !13
  store ptr %1, ptr %4, align 8, !tbaa !13
  %5 = load ptr, ptr %4, align 8, !tbaa !13
  %6 = load ptr, ptr %3, align 8, !tbaa !13
  %7 = getelementptr inbounds nuw %struct.inst, ptr %6, i32 0, i32 0
  store ptr %5, ptr %7, align 8, !tbaa !28
  %8 = load ptr, ptr %3, align 8, !tbaa !13
  %9 = load ptr, ptr %4, align 8, !tbaa !13
  %10 = getelementptr inbounds nuw %struct.inst, ptr %9, i32 0, i32 1
  store ptr %8, ptr %10, align 8, !tbaa !32
  ret void
}

; Function Attrs: nounwind uwtable
define dso_local void @block_append(ptr noundef %0, ptr %1, ptr %2) #0 {
  %4 = alloca %struct.block, align 8
  %5 = alloca ptr, align 8
  %6 = getelementptr inbounds nuw { ptr, ptr }, ptr %4, i32 0, i32 0
  store ptr %1, ptr %6, align 8
  %7 = getelementptr inbounds nuw { ptr, ptr }, ptr %4, i32 0, i32 1
  store ptr %2, ptr %7, align 8
  store ptr %0, ptr %5, align 8, !tbaa !46
  %8 = getelementptr inbounds nuw %struct.block, ptr %4, i32 0, i32 0
  %9 = load ptr, ptr %8, align 8, !tbaa !4
  %10 = icmp ne ptr %9, null
  br i1 %10, label %11, label %32

11:                                               ; preds = %3
  %12 = load ptr, ptr %5, align 8, !tbaa !46
  %13 = getelementptr inbounds nuw %struct.block, ptr %12, i32 0, i32 1
  %14 = load ptr, ptr %13, align 8, !tbaa !10
  %15 = icmp ne ptr %14, null
  br i1 %15, label %16, label %22

16:                                               ; preds = %11
  %17 = load ptr, ptr %5, align 8, !tbaa !46
  %18 = getelementptr inbounds nuw %struct.block, ptr %17, i32 0, i32 1
  %19 = load ptr, ptr %18, align 8, !tbaa !10
  %20 = getelementptr inbounds nuw %struct.block, ptr %4, i32 0, i32 0
  %21 = load ptr, ptr %20, align 8, !tbaa !4
  call void @inst_join(ptr noundef %19, ptr noundef %21)
  br label %27

22:                                               ; preds = %11
  %23 = getelementptr inbounds nuw %struct.block, ptr %4, i32 0, i32 0
  %24 = load ptr, ptr %23, align 8, !tbaa !4
  %25 = load ptr, ptr %5, align 8, !tbaa !46
  %26 = getelementptr inbounds nuw %struct.block, ptr %25, i32 0, i32 0
  store ptr %24, ptr %26, align 8, !tbaa !4
  br label %27

27:                                               ; preds = %22, %16
  %28 = getelementptr inbounds nuw %struct.block, ptr %4, i32 0, i32 1
  %29 = load ptr, ptr %28, align 8, !tbaa !10
  %30 = load ptr, ptr %5, align 8, !tbaa !46
  %31 = getelementptr inbounds nuw %struct.block, ptr %30, i32 0, i32 1
  store ptr %29, ptr %31, align 8, !tbaa !10
  br label %32

32:                                               ; preds = %27, %3
  ret void
}

; Function Attrs: nounwind uwtable
define dso_local { ptr, ptr } @block_join(ptr %0, ptr %1, ptr %2, ptr %3) #0 {
  %5 = alloca %struct.block, align 8
  %6 = alloca %struct.block, align 8
  %7 = alloca %struct.block, align 8
  %8 = getelementptr inbounds nuw { ptr, ptr }, ptr %6, i32 0, i32 0
  store ptr %0, ptr %8, align 8
  %9 = getelementptr inbounds nuw { ptr, ptr }, ptr %6, i32 0, i32 1
  store ptr %1, ptr %9, align 8
  %10 = getelementptr inbounds nuw { ptr, ptr }, ptr %7, i32 0, i32 0
  store ptr %2, ptr %10, align 8
  %11 = getelementptr inbounds nuw { ptr, ptr }, ptr %7, i32 0, i32 1
  store ptr %3, ptr %11, align 8
  call void @llvm.memcpy.p0.p0.i64(ptr align 8 %5, ptr align 8 %6, i64 16, i1 false), !tbaa.struct !31
  %12 = getelementptr inbounds nuw { ptr, ptr }, ptr %7, i32 0, i32 0
  %13 = load ptr, ptr %12, align 8
  %14 = getelementptr inbounds nuw { ptr, ptr }, ptr %7, i32 0, i32 1
  %15 = load ptr, ptr %14, align 8
  call void @block_append(ptr noundef %5, ptr %13, ptr %15)
  %16 = load { ptr, ptr }, ptr %5, align 8
  ret { ptr, ptr } %16
}

; Function Attrs: nounwind uwtable
define internal { ptr, ptr } @inst_block(ptr noundef %0) #0 {
  %2 = alloca %struct.block, align 8
  %3 = alloca ptr, align 8
  store ptr %0, ptr %3, align 8, !tbaa !13
  %4 = getelementptr inbounds nuw %struct.block, ptr %2, i32 0, i32 0
  %5 = load ptr, ptr %3, align 8, !tbaa !13
  store ptr %5, ptr %4, align 8, !tbaa !4
  %6 = getelementptr inbounds nuw %struct.block, ptr %2, i32 0, i32 1
  %7 = load ptr, ptr %3, align 8, !tbaa !13
  store ptr %7, ptr %6, align 8, !tbaa !10
  %8 = load { ptr, ptr }, ptr %2, align 8
  ret { ptr, ptr } %8
}

; Function Attrs: nounwind uwtable
define internal ptr @block_take(ptr noundef %0) #0 {
  %2 = alloca ptr, align 8
  %3 = alloca ptr, align 8
  %4 = alloca ptr, align 8
  store ptr %0, ptr %3, align 8, !tbaa !46
  %5 = load ptr, ptr %3, align 8, !tbaa !46
  %6 = getelementptr inbounds nuw %struct.block, ptr %5, i32 0, i32 0
  %7 = load ptr, ptr %6, align 8, !tbaa !4
  %8 = icmp eq ptr %7, null
  br i1 %8, label %9, label %10

9:                                                ; preds = %1
  store ptr null, ptr %2, align 8
  br label %37

10:                                               ; preds = %1
  call void @llvm.lifetime.start.p0(i64 8, ptr %4) #7
  %11 = load ptr, ptr %3, align 8, !tbaa !46
  %12 = getelementptr inbounds nuw %struct.block, ptr %11, i32 0, i32 0
  %13 = load ptr, ptr %12, align 8, !tbaa !4
  store ptr %13, ptr %4, align 8, !tbaa !13
  %14 = load ptr, ptr %4, align 8, !tbaa !13
  %15 = getelementptr inbounds nuw %struct.inst, ptr %14, i32 0, i32 0
  %16 = load ptr, ptr %15, align 8, !tbaa !28
  %17 = icmp ne ptr %16, null
  br i1 %17, label %18, label %30

18:                                               ; preds = %10
  %19 = load ptr, ptr %4, align 8, !tbaa !13
  %20 = getelementptr inbounds nuw %struct.inst, ptr %19, i32 0, i32 0
  %21 = load ptr, ptr %20, align 8, !tbaa !28
  %22 = getelementptr inbounds nuw %struct.inst, ptr %21, i32 0, i32 1
  store ptr null, ptr %22, align 8, !tbaa !32
  %23 = load ptr, ptr %4, align 8, !tbaa !13
  %24 = getelementptr inbounds nuw %struct.inst, ptr %23, i32 0, i32 0
  %25 = load ptr, ptr %24, align 8, !tbaa !28
  %26 = load ptr, ptr %3, align 8, !tbaa !46
  %27 = getelementptr inbounds nuw %struct.block, ptr %26, i32 0, i32 0
  store ptr %25, ptr %27, align 8, !tbaa !4
  %28 = load ptr, ptr %4, align 8, !tbaa !13
  %29 = getelementptr inbounds nuw %struct.inst, ptr %28, i32 0, i32 0
  store ptr null, ptr %29, align 8, !tbaa !28
  br label %35

30:                                               ; preds = %10
  %31 = load ptr, ptr %3, align 8, !tbaa !46
  %32 = getelementptr inbounds nuw %struct.block, ptr %31, i32 0, i32 0
  store ptr null, ptr %32, align 8, !tbaa !4
  %33 = load ptr, ptr %3, align 8, !tbaa !46
  %34 = getelementptr inbounds nuw %struct.block, ptr %33, i32 0, i32 1
  store ptr null, ptr %34, align 8, !tbaa !10
  br label %35

35:                                               ; preds = %30, %18
  %36 = load ptr, ptr %4, align 8, !tbaa !13
  store ptr %36, ptr %2, align 8
  call void @llvm.lifetime.end.p0(i64 8, ptr %4) #7
  br label %37

37:                                               ; preds = %35, %9
  %38 = load ptr, ptr %2, align 8
  ret ptr %38
}

; Function Attrs: nounwind uwtable
define dso_local { ptr, ptr } @gen_noop() #0 {
  %1 = alloca %struct.block, align 8
  call void @llvm.memset.p0.i64(ptr align 8 %1, i8 0, i64 16, i1 false)
  %2 = load { ptr, ptr }, ptr %1, align 8
  ret { ptr, ptr } %2
}

; Function Attrs: nounwind uwtable
define dso_local { ptr, ptr } @block_drop_unreferenced(ptr %0, ptr %1) #0 {
  %3 = alloca %struct.block, align 8
  %4 = alloca %struct.block, align 8
  %5 = alloca ptr, align 8
  %6 = alloca %struct.block, align 8
  %7 = alloca %struct.block, align 8
  %8 = getelementptr inbounds nuw { ptr, ptr }, ptr %4, i32 0, i32 0
  store ptr %0, ptr %8, align 8
  %9 = getelementptr inbounds nuw { ptr, ptr }, ptr %4, i32 0, i32 1
  store ptr %1, ptr %9, align 8
  %10 = getelementptr inbounds nuw { ptr, ptr }, ptr %4, i32 0, i32 0
  %11 = load ptr, ptr %10, align 8
  %12 = getelementptr inbounds nuw { ptr, ptr }, ptr %4, i32 0, i32 1
  %13 = load ptr, ptr %12, align 8
  call void @block_mark_referenced(ptr %11, ptr %13)
  %14 = call { ptr, ptr } @gen_noop()
  %15 = getelementptr inbounds nuw { ptr, ptr }, ptr %3, i32 0, i32 0
  %16 = extractvalue { ptr, ptr } %14, 0
  store ptr %16, ptr %15, align 8
  %17 = getelementptr inbounds nuw { ptr, ptr }, ptr %3, i32 0, i32 1
  %18 = extractvalue { ptr, ptr } %14, 1
  store ptr %18, ptr %17, align 8
  call void @llvm.lifetime.start.p0(i64 8, ptr %5) #7
  br label %19

19:                                               ; preds = %55, %2
  %20 = call ptr @block_take(ptr noundef %4)
  store ptr %20, ptr %5, align 8, !tbaa !13
  %21 = icmp ne ptr %20, null
  br i1 %21, label %22, label %56

22:                                               ; preds = %19
  %23 = load ptr, ptr %5, align 8, !tbaa !13
  %24 = getelementptr inbounds nuw %struct.inst, ptr %23, i32 0, i32 6
  %25 = load ptr, ptr %24, align 8, !tbaa !35
  %26 = load ptr, ptr %5, align 8, !tbaa !13
  %27 = icmp eq ptr %25, %26
  br i1 %27, label %28, label %35

28:                                               ; preds = %22
  %29 = load ptr, ptr %5, align 8, !tbaa !13
  %30 = getelementptr inbounds nuw %struct.inst, ptr %29, i32 0, i32 9
  %31 = load i32, ptr %30, align 4, !tbaa !38
  %32 = icmp ne i32 %31, 0
  br i1 %32, label %35, label %33

33:                                               ; preds = %28
  %34 = load ptr, ptr %5, align 8, !tbaa !13
  call void @inst_free(ptr noundef %34)
  br label %55

35:                                               ; preds = %28, %22
  call void @llvm.lifetime.start.p0(i64 16, ptr %6) #7
  %36 = load ptr, ptr %5, align 8, !tbaa !13
  %37 = call { ptr, ptr } @inst_block(ptr noundef %36)
  %38 = getelementptr inbounds nuw { ptr, ptr }, ptr %7, i32 0, i32 0
  %39 = extractvalue { ptr, ptr } %37, 0
  store ptr %39, ptr %38, align 8
  %40 = getelementptr inbounds nuw { ptr, ptr }, ptr %7, i32 0, i32 1
  %41 = extractvalue { ptr, ptr } %37, 1
  store ptr %41, ptr %40, align 8
  %42 = getelementptr inbounds nuw { ptr, ptr }, ptr %3, i32 0, i32 0
  %43 = load ptr, ptr %42, align 8
  %44 = getelementptr inbounds nuw { ptr, ptr }, ptr %3, i32 0, i32 1
  %45 = load ptr, ptr %44, align 8
  %46 = getelementptr inbounds nuw { ptr, ptr }, ptr %7, i32 0, i32 0
  %47 = load ptr, ptr %46, align 8
  %48 = getelementptr inbounds nuw { ptr, ptr }, ptr %7, i32 0, i32 1
  %49 = load ptr, ptr %48, align 8
  %50 = call { ptr, ptr } @block_join(ptr %43, ptr %45, ptr %47, ptr %49)
  %51 = getelementptr inbounds nuw { ptr, ptr }, ptr %6, i32 0, i32 0
  %52 = extractvalue { ptr, ptr } %50, 0
  store ptr %52, ptr %51, align 8
  %53 = getelementptr inbounds nuw { ptr, ptr }, ptr %6, i32 0, i32 1
  %54 = extractvalue { ptr, ptr } %50, 1
  store ptr %54, ptr %53, align 8
  call void @llvm.memcpy.p0.p0.i64(ptr align 8 %3, ptr align 8 %6, i64 16, i1 false), !tbaa.struct !31
  call void @llvm.lifetime.end.p0(i64 16, ptr %6) #7
  br label %55

55:                                               ; preds = %35, %33
  br label %19, !llvm.loop !56

56:                                               ; preds = %19
  call void @llvm.lifetime.end.p0(i64 8, ptr %5) #7
  %57 = load { ptr, ptr }, ptr %3, align 8
  ret { ptr, ptr } %57
}