; Function Attrs: nounwind uwtable
define dso_local { ptr, ptr } @block_drop_unreferenced(ptr %0, ptr captures(address) %1) local_unnamed_addr #1 {
  tail call fastcc void @block_mark_referenced(ptr %1)
  %3 = icmp eq ptr %0, null
  br i1 %3, label %block_take.exit, label %.lr.ph

.lr.ph:                                           ; preds = %2, %block_join.exit
  %.sroa.47.017 = phi ptr [ %.sroa.47.1, %block_join.exit ], [ null, %2 ]
  %.sroa.06.016 = phi ptr [ %.sroa.06.1, %block_join.exit ], [ null, %2 ]
  %.sroa.0.015 = phi ptr [ %4, %block_join.exit ], [ %0, %2 ]
  %4 = load ptr, ptr %.sroa.0.015, align 8, !tbaa !22
  %.not.i = icmp eq ptr %4, null
  br i1 %.not.i, label %7, label %5

5:                                                ; preds = %.lr.ph
  %6 = getelementptr inbounds nuw i8, ptr %4, i64 8
  store ptr null, ptr %6, align 8, !tbaa !34
  store ptr null, ptr %.sroa.0.015, align 8, !tbaa !22
  br label %7

7:                                                ; preds = %.lr.ph, %5
  %8 = getelementptr inbounds nuw i8, ptr %.sroa.0.015, i64 80
  %9 = load ptr, ptr %8, align 8, !tbaa !33
  %10 = icmp eq ptr %9, %.sroa.0.015
  br i1 %10, label %11, label %15

11:                                               ; preds = %7
  %12 = getelementptr inbounds nuw i8, ptr %.sroa.0.015, i64 100
  %13 = load i32, ptr %12, align 4, !tbaa !45
  %.not8 = icmp eq i32 %13, 0
  br i1 %.not8, label %14, label %15

14:                                               ; preds = %11
  tail call fastcc void @inst_free(ptr noundef nonnull %.sroa.0.015)
  br label %block_join.exit

15:                                               ; preds = %7, %11
  %.not7.i.i = icmp eq ptr %.sroa.47.017, null
  br i1 %.not7.i.i, label %block_join.exit, label %16

16:                                               ; preds = %15
  store ptr %.sroa.0.015, ptr %.sroa.47.017, align 8, !tbaa !22
  %17 = getelementptr inbounds nuw i8, ptr %.sroa.0.015, i64 8
  store ptr %.sroa.47.017, ptr %17, align 8, !tbaa !34
  br label %block_join.exit

block_join.exit:                                  ; preds = %16, %15, %14
  %.sroa.06.1 = phi ptr [ %.sroa.06.016, %14 ], [ %.sroa.0.015, %15 ], [ %.sroa.06.016, %16 ]
  %.sroa.47.1 = phi ptr [ %.sroa.47.017, %14 ], [ %.sroa.0.015, %15 ], [ %.sroa.0.015, %16 ]
  br i1 %.not.i, label %block_take.exit, label %.lr.ph, !llvm.loop !46

block_take.exit:                                  ; preds = %block_join.exit, %2
  %.sroa.06.0.lcssa = phi ptr [ null, %2 ], [ %.sroa.06.1, %block_join.exit ]
  %.sroa.47.0.lcssa = phi ptr [ null, %2 ], [ %.sroa.47.1, %block_join.exit ]
  %.fca.0.insert = insertvalue { ptr, ptr } poison, ptr %.sroa.06.0.lcssa, 0
  %.fca.1.insert = insertvalue { ptr, ptr } %.fca.0.insert, ptr %.sroa.47.0.lcssa, 1
  ret { ptr, ptr } %.fca.1.insert
}